(lp0
(lp1
I1
aI7
aI9
aI12
aI11
aI0
aI6
aI3
aI10
aI5
aI4
aI8
aI2
aa(lp2
S'Hammerfest'
p3
aS'Troms\xf8'
p4
aS'\xc5lesund'
p5
aS'Sogndal'
p6
aS'Fl\xe5m'
p7
aS'Bergen'
p8
aS'Stavanger'
p9
aS'Kristiansand'
p10
aS'Vinje'
p11
aS'Oslo'
p12
aS'Lillehammer'
p13
aS'Trondheim'
p14
aS'Kirkenes'
p15
aaI5868
a.