(lp0
(lp1
I4
aI5
aI10
aI3
aI6
aI0
aI9
aI8
aI7
aI1
aI2
aa(lp2
S'Lillehammer'
p3
aS'Oslo'
p4
aS'Vinje'
p5
aS'Kristiansand'
p6
aS'Stavanger'
p7
aS'Bergen'
p8
aS'\xc5lesund'
p9
aS'Trondheim'
p10
aS'Troms\xf8'
p11
aS'Hammerfest'
p12
aS'Kirkenes'
p13
aaI5678
a.