(lp0
(lp1
I9
aI13
aI12
aI11
aI0
aI6
aI3
aI10
aI5
aI4
aI8
aI7
aI1
aI2
aa(lp2
S'\xc5lesund'
p3
aS'Vang'
p4
aS'Sogndal'
p5
aS'Fl\xe5m'
p6
aS'Bergen'
p7
aS'Stavanger'
p8
aS'Kristiansand'
p9
aS'Vinje'
p10
aS'Oslo'
p11
aS'Lillehammer'
p12
aS'Trondheim'
p13
aS'Troms\xf8'
p14
aS'Hammerfest'
p15
aS'Kirkenes'
p16
aaI6065
a.