(lp0
(lp1
I2
aI1
aI7
aI8
aI9
aI11
aI0
aI6
aI3
aI10
aI5
aI4
aa(lp2
S'Kirkenes'
p3
aS'Hammerfest'
p4
aS'Troms\xf8'
p5
aS'Trondheim'
p6
aS'\xc5lesund'
p7
aS'Fl\xe5m'
p8
aS'Bergen'
p9
aS'Stavanger'
p10
aS'Kristiansand'
p11
aS'Vinje'
p12
aS'Oslo'
p13
aS'Lillehammer'
p14
aaI5782
a.